; Function Attrs: mustprogress nofree norecurse nounwind willreturn memory(argmem: readwrite) uwtable
define noundef zeroext i1 @_ZN9grpc_core21PartySyncUsingAtomics14ScheduleWakeupEt(ptr nocapture noundef nonnull align 8 dereferenceable(8) %this, i16 noundef zeroext %mask) local_unnamed_addr #4 align 2 {
entry:
  %conv = zext i16 %mask to i64
  %or = or disjoint i64 %conv, 34359738368
  %0 = atomicrmw or ptr %this, i64 %or acq_rel, align 8
  %and2 = and i64 %0, 34359738368
  %cmp = icmp eq i64 %and2, 0
  ret i1 %cmp
}